; Function Attrs: nounwind sspstrong uwtable
define internal void @block_dirty_bitmap_remove_abort(ptr noundef readonly captures(none) %0) #0 {
  %2 = load ptr, ptr %0, align 8
  %.not = icmp eq ptr %2, null
  br i1 %.not, label %5, label %3

3:                                                ; preds = %1
  tail call void @bdrv_dirty_bitmap_skip_store(ptr noundef nonnull %2, i1 noundef zeroext false) #14
  %4 = load ptr, ptr %0, align 8
  tail call void @bdrv_dirty_bitmap_set_busy(ptr noundef %4, i1 noundef zeroext false) #14
  br label %5

5:                                                ; preds = %3, %1
  ret void
}